(dp0
VBs_t
p1
F20000.0
sVBs_c
p2
F-55000.0
sVe
p3
F1e-15
sVR
p4
F8.31
sVs_max
p5
F200.0
sVCs
p6
cdjango.db.models.base
model_unpickle
p7
((Vmaker
p8
VRheologicModel
p9
tp10
tp11
Rp12
(dp13
V_state
p14
ccopy_reg
_reconstructor
p15
(cdjango.db.models.base
ModelState
p16
c__builtin__
object
p17
Ntp18
Rp19
(dp20
Vdb
p21
Vdefault
p22
sVadding
p23
I00
sbsVid
p24
L9L
sVnum
p25
L9L
sVname
p26
VQuartzite2
p27
sVH
p28
F134000.0
sVn
p29
F2.7
sVA
p30
F6e-24
sVref
p31
VPorth00
p32
sV_django_version
p33
V1.11.2
p34
sbsVCi
p35
g7
((g8
g9
tp36
tp37
Rp38
(dp39
g14
g15
(g16
g17
Ntp40
Rp41
(dp42
g21
g22
sg23
I00
sbsg24
L12L
sg25
L12L
sg26
VDiabase
p43
sg28
F276000.0
sg29
F3.05
sg30
F6.31e-20
sg31
VB&D95
p44
sg33
V1.11.2
p45
sbsVMl
p46
g7
((g8
g9
tp47
tp48
Rp49
(dp50
g14
g15
(g16
g17
Ntp51
Rp52
(dp53
g21
g22
sg23
I00
sbsg24
L22L
sg25
L22L
sg26
VOl-dunite
p54
sg28
F520000.0
sg29
F3.0
sg30
F7e-14
sg31
VB&D95
p55
sg33
V1.11.2
p56
sbs.