(dp0
Vk_z
p1
I00
sVH_z
p2
I00
sVdelta_icd
p3
I01
sVt_lat
p4
I01
sVk_cs
p5
F3.0
sVk_ci
p6
F2.5
sVk_ml
p7
F3.5
sVH_cs
p8
F3e-06
sVH_ci
p9
F3e-06
sVH_ml
p10
F3e-06
sVdelta
p11
F10.0
sVTp
p12
F1300.0
sVG
p13
F0.0004
sVkappa
p14
F1e-06
sVV
p15
F65000.0
sVdip
p16
F20.0
sVb
p17
F1.0
sVt
p18
F30.0
sVD
p19
F3.0
s.